; ModuleID = 'source-C-CXX/56/770.c'
source_filename = "source-C-CXX/56/770.c"
target datalayout = "e-m:e-p270:32:32-p271:32:32-p272:64:64-i64:64-f80:128-n8:16:32:64-S128"
target triple = "x86_64-pc-linux-gnu"

; Function Attrs: nounwind sspstrong uwtable
define dso_local i32 @main() local_unnamed_addr #0 {
  %1 = alloca [4 x i8], align 1
  %2 = alloca [33 x i8], align 16
  %3 = getelementptr inbounds [4 x i8], [4 x i8]* %1, i64 0, i64 0
  call void @llvm.lifetime.start.p0i8(i64 4, i8* nonnull %3) #6
  %4 = call i32 (i8*, ...) bitcast (i32 (...)* @gets to i32 (i8*, ...)*)(i8* nonnull %3) #6
  %5 = call i64 @strtol(i8* nocapture nonnull %3, i8** null, i32 10) #6
  %6 = trunc i64 %5 to i32
  %7 = getelementptr inbounds [33 x i8], [33 x i8]* %2, i64 0, i64 0
  %8 = icmp sgt i32 %6, 0
  br i1 %8, label %9, label %48

9:                                                ; preds = %0, %44
  %10 = phi i32 [ %46, %44 ], [ 0, %0 ]
  call void @llvm.lifetime.start.p0i8(i64 33, i8* nonnull %7) #6
  %11 = call i32 (i8*, ...) bitcast (i32 (...)* @gets to i32 (i8*, ...)*)(i8* nonnull %7) #6
  %12 = call i64 @strlen(i8* noundef nonnull %7) #7
  %13 = shl i64 %12, 32
  %14 = add i64 %13, -4294967296
  %15 = ashr exact i64 %14, 32
  %16 = getelementptr inbounds [33 x i8], [33 x i8]* %2, i64 0, i64 %15
  %17 = load i8, i8* %16, align 1, !tbaa !5
  switch i8 %17, label %44 [
    i8 103, label %18
    i8 121, label %30
    i8 114, label %36
  ]

18:                                               ; preds = %9
  %19 = add i64 %13, -8589934592
  %20 = ashr exact i64 %19, 32
  %21 = getelementptr inbounds [33 x i8], [33 x i8]* %2, i64 0, i64 %20
  %22 = load i8, i8* %21, align 1, !tbaa !5
  %23 = icmp eq i8 %22, 110
  br i1 %23, label %24, label %44

24:                                               ; preds = %18
  %25 = add i64 %13, -12884901888
  %26 = ashr exact i64 %25, 32
  %27 = getelementptr inbounds [33 x i8], [33 x i8]* %2, i64 0, i64 %26
  %28 = load i8, i8* %27, align 1, !tbaa !5
  %29 = icmp eq i8 %28, 105
  br i1 %29, label %42, label %44

30:                                               ; preds = %9
  %31 = add i64 %13, -8589934592
  %32 = ashr exact i64 %31, 32
  %33 = getelementptr inbounds [33 x i8], [33 x i8]* %2, i64 0, i64 %32
  %34 = load i8, i8* %33, align 1, !tbaa !5
  %35 = icmp eq i8 %34, 108
  br i1 %35, label %42, label %44

36:                                               ; preds = %9
  %37 = add i64 %13, -8589934592
  %38 = ashr exact i64 %37, 32
  %39 = getelementptr inbounds [33 x i8], [33 x i8]* %2, i64 0, i64 %38
  %40 = load i8, i8* %39, align 1, !tbaa !5
  %41 = icmp eq i8 %40, 101
  br i1 %41, label %42, label %44

42:                                               ; preds = %36, %30, %24
  %43 = phi i8* [ %27, %24 ], [ %33, %30 ], [ %39, %36 ]
  store i8 0, i8* %43, align 1, !tbaa !5
  br label %44

44:                                               ; preds = %42, %9, %18, %24, %30, %36
  %45 = call i32 @puts(i8* nonnull %7)
  call void @llvm.lifetime.end.p0i8(i64 33, i8* nonnull %7) #6
  %46 = add nuw nsw i32 %10, 1
  %47 = icmp eq i32 %46, %6
  br i1 %47, label %48, label %9, !llvm.loop !8

48:                                               ; preds = %44, %0
  call void @llvm.lifetime.end.p0i8(i64 4, i8* nonnull %3) #6
  ret i32 0
}

; Function Attrs: argmemonly mustprogress nofree nosync nounwind willreturn
declare void @llvm.lifetime.start.p0i8(i64 immarg, i8* nocapture) #1

declare i32 @gets(...) local_unnamed_addr #2

; Function Attrs: argmemonly mustprogress nofree nounwind readonly willreturn
declare i64 @strlen(i8* nocapture) local_unnamed_addr #3

; Function Attrs: nofree nounwind
declare noundef i32 @puts(i8* nocapture noundef readonly) local_unnamed_addr #4

; Function Attrs: argmemonly mustprogress nofree nosync nounwind willreturn
declare void @llvm.lifetime.end.p0i8(i64 immarg, i8* nocapture) #1

; Function Attrs: mustprogress nofree nounwind willreturn
declare i64 @strtol(i8* readonly, i8** nocapture, i32) local_unnamed_addr #5


!llvm.module.flags = !{!0, !1, !2, !3}
!llvm.ident = !{!4}

!0 = !{i32 1, !"wchar_size", i32 4}
!1 = !{i32 7, !"PIC Level", i32 2}
!2 = !{i32 7, !"PIE Level", i32 2}
!3 = !{i32 7, !"uwtable", i32 1}
!4 = !{!"clang version 13.0.0"}
!5 = !{!6, !6, i64 0}
!6 = !{!"omnipotent char", !7, i64 0}
!7 = !{!"Simple C/C++ TBAA"}
!8 = distinct !{!8, !9}
!9 = !{!"llvm.loop.mustprogress"}
